target datalayout = "e-m:e-p270:32:32-p271:32:32-p272:64:64-i64:64-i128:128-f80:128-n8:16:32:64-S128"
target triple = "x86_64-pc-linux-gnu"

%struct.x509_trust_st = type { i32, i32, ptr, ptr, i32, ptr }

@default_trust = internal global ptr @obj_trust, align 8
@trtable = internal global ptr null, align 8

; Function Attrs: inlinehint nounwind uwtable
define internal ptr @ossl_check_const_X509_TRUST_sk_type(ptr noundef %0) #3 {
  %2 = alloca ptr, align 8
  store ptr %0, ptr %2, align 8, !tbaa !53
  %3 = load ptr, ptr %2, align 8, !tbaa !53
  ret ptr %3
}

; Function Attrs: inlinehint nounwind uwtable
define internal ptr @ossl_check_X509_TRUST_type(ptr noundef %0) #3 {
  %2 = alloca ptr, align 8
  store ptr %0, ptr %2, align 8, !tbaa !11
  %3 = load ptr, ptr %2, align 8, !tbaa !11
  ret ptr %3
}

; Function Attrs: inlinehint nounwind uwtable
define internal ptr @ossl_check_X509_TRUST_sk_type(ptr noundef %0) #3 {
  %2 = alloca ptr, align 8
  store ptr %0, ptr %2, align 8, !tbaa !53
  %3 = load ptr, ptr %2, align 8, !tbaa !53
  ret ptr %3
}

; Function Attrs: nounwind uwtable
define ptr @X509_TRUST_get0(i32 noundef %0) #0 {
  %2 = alloca ptr, align 8
  %3 = alloca i32, align 4
  store i32 %0, ptr %3, align 4, !tbaa !9
  %4 = load i32, ptr %3, align 4, !tbaa !9
  %5 = icmp slt i32 %4, 0
  br i1 %5, label %6, label %7

6:                                                ; preds = %1
  store ptr null, ptr %2, align 8
  br label %22

7:                                                ; preds = %1
  %8 = load i32, ptr %3, align 4, !tbaa !9
  %9 = icmp slt i32 %8, 8
  br i1 %9, label %10, label %14

10:                                               ; preds = %7
  %11 = load i32, ptr %3, align 4, !tbaa !9
  %12 = sext i32 %11 to i64
  %13 = getelementptr inbounds %struct.x509_trust_st, ptr @trstandard, i64 %12
  store ptr %13, ptr %2, align 8
  br label %22

14:                                               ; preds = %7
  %15 = load ptr, ptr @trtable, align 8, !tbaa !53
  %16 = call ptr @ossl_check_const_X509_TRUST_sk_type(ptr noundef %15)
  %17 = load i32, ptr %3, align 4, !tbaa !9
  %18 = sext i32 %17 to i64
  %19 = sub i64 %18, 8
  %20 = trunc i64 %19 to i32
  %21 = call ptr @OPENSSL_sk_value(ptr noundef %16, i32 noundef %20)
  store ptr %21, ptr %2, align 8
  br label %22

22:                                               ; preds = %14, %10, %6
  %23 = load ptr, ptr %2, align 8
  ret ptr %23
}

; Function Attrs: nounwind uwtable
define i32 @X509_TRUST_get_by_id(i32 noundef %0) #0 {
  %2 = alloca i32, align 4
  %3 = alloca i32, align 4
  %4 = alloca %struct.x509_trust_st, align 8
  %5 = alloca i32, align 4
  %6 = alloca i32, align 4
  store i32 %0, ptr %3, align 4, !tbaa !9
  call void @llvm.lifetime.start.p0(i64 40, ptr %4) #4
  call void @llvm.lifetime.start.p0(i64 4, ptr %5) #4
  %7 = load i32, ptr %3, align 4, !tbaa !9
  %8 = icmp sge i32 %7, 1
  br i1 %8, label %9, label %15

9:                                                ; preds = %1
  %10 = load i32, ptr %3, align 4, !tbaa !9
  %11 = icmp sle i32 %10, 8
  br i1 %11, label %12, label %15

12:                                               ; preds = %9
  %13 = load i32, ptr %3, align 4, !tbaa !9
  %14 = sub nsw i32 %13, 1
  store i32 %14, ptr %2, align 4
  store i32 1, ptr %6, align 4
  br label %36

15:                                               ; preds = %9, %1
  %16 = load ptr, ptr @trtable, align 8, !tbaa !53
  %17 = icmp eq ptr %16, null
  br i1 %17, label %18, label %19

18:                                               ; preds = %15
  store i32 -1, ptr %2, align 4
  store i32 1, ptr %6, align 4
  br label %36

19:                                               ; preds = %15
  %20 = load i32, ptr %3, align 4, !tbaa !9
  %21 = getelementptr inbounds nuw %struct.x509_trust_st, ptr %4, i32 0, i32 0
  store i32 %20, ptr %21, align 8, !tbaa !55
  %22 = load ptr, ptr @trtable, align 8, !tbaa !53
  %23 = call ptr @ossl_check_X509_TRUST_sk_type(ptr noundef %22)
  call void @OPENSSL_sk_sort(ptr noundef %23)
  %24 = load ptr, ptr @trtable, align 8, !tbaa !53
  %25 = call ptr @ossl_check_X509_TRUST_sk_type(ptr noundef %24)
  %26 = call ptr @ossl_check_X509_TRUST_type(ptr noundef %4)
  %27 = call i32 @OPENSSL_sk_find(ptr noundef %25, ptr noundef %26)
  store i32 %27, ptr %5, align 4, !tbaa !9
  %28 = load i32, ptr %5, align 4, !tbaa !9
  %29 = icmp slt i32 %28, 0
  br i1 %29, label %30, label %31

30:                                               ; preds = %19
  store i32 -1, ptr %2, align 4
  store i32 1, ptr %6, align 4
  br label %36

31:                                               ; preds = %19
  %32 = load i32, ptr %5, align 4, !tbaa !9
  %33 = sext i32 %32 to i64
  %34 = add i64 %33, 8
  %35 = trunc i64 %34 to i32
  store i32 %35, ptr %2, align 4
  store i32 1, ptr %6, align 4
  br label %36

36:                                               ; preds = %31, %30, %18, %12
  call void @llvm.lifetime.end.p0(i64 4, ptr %5) #4
  call void @llvm.lifetime.end.p0(i64 40, ptr %4) #4
  %37 = load i32, ptr %2, align 4
  ret i32 %37
}

; Function Attrs: nounwind uwtable
define i32 @X509_check_trust(ptr noundef %0, i32 noundef %1, i32 noundef %2) #0 {
  %4 = alloca i32, align 4
  %5 = alloca ptr, align 8
  %6 = alloca i32, align 4
  %7 = alloca i32, align 4
  %8 = alloca ptr, align 8
  %9 = alloca i32, align 4
  %10 = alloca i32, align 4
  store ptr %0, ptr %5, align 8, !tbaa !7
  store i32 %1, ptr %6, align 4, !tbaa !9
  store i32 %2, ptr %7, align 4, !tbaa !9
  call void @llvm.lifetime.start.p0(i64 8, ptr %8) #4
  call void @llvm.lifetime.start.p0(i64 4, ptr %9) #4
  %11 = load i32, ptr %6, align 4, !tbaa !9
  %12 = icmp eq i32 %11, 0
  br i1 %12, label %13, label %18

13:                                               ; preds = %3
  %14 = load ptr, ptr %5, align 8, !tbaa !7
  %15 = load i32, ptr %7, align 4, !tbaa !9
  %16 = or i32 %15, 8
  %17 = call i32 @obj_trust(i32 noundef 910, ptr noundef %14, i32 noundef %16)
  store i32 %17, ptr %4, align 4
  store i32 1, ptr %10, align 4
  br label %39

18:                                               ; preds = %3
  %19 = load i32, ptr %6, align 4, !tbaa !9
  %20 = call i32 @X509_TRUST_get_by_id(i32 noundef %19)
  store i32 %20, ptr %9, align 4, !tbaa !9
  %21 = load i32, ptr %9, align 4, !tbaa !9
  %22 = icmp slt i32 %21, 0
  br i1 %22, label %23, label %29

23:                                               ; preds = %18
  %24 = load ptr, ptr @default_trust, align 8, !tbaa !3
  %25 = load i32, ptr %6, align 4, !tbaa !9
  %26 = load ptr, ptr %5, align 8, !tbaa !7
  %27 = load i32, ptr %7, align 4, !tbaa !9
  %28 = call i32 %24(i32 noundef %25, ptr noundef %26, i32 noundef %27)
  store i32 %28, ptr %4, align 4
  store i32 1, ptr %10, align 4
  br label %39

29:                                               ; preds = %18
  %30 = load i32, ptr %9, align 4, !tbaa !9
  %31 = call ptr @X509_TRUST_get0(i32 noundef %30)
  store ptr %31, ptr %8, align 8, !tbaa !11
  %32 = load ptr, ptr %8, align 8, !tbaa !11
  %33 = getelementptr inbounds nuw %struct.x509_trust_st, ptr %32, i32 0, i32 2
  %34 = load ptr, ptr %33, align 8, !tbaa !13
  %35 = load ptr, ptr %8, align 8, !tbaa !11
  %36 = load ptr, ptr %5, align 8, !tbaa !7
  %37 = load i32, ptr %7, align 4, !tbaa !9
  %38 = call i32 %34(ptr noundef %35, ptr noundef %36, i32 noundef %37)
  store i32 %38, ptr %4, align 4
  store i32 1, ptr %10, align 4
  br label %39

39:                                               ; preds = %29, %23, %13
  call void @llvm.lifetime.end.p0(i64 4, ptr %9) #4
  call void @llvm.lifetime.end.p0(i64 8, ptr %8) #4
  %40 = load i32, ptr %4, align 4
  ret i32 %40
}