; Function Attrs: nounwind uwtable
define i32 @X509_check_trust(ptr noundef %0, i32 noundef %1, i32 noundef %2) local_unnamed_addr #2 {
  %4 = alloca %struct.x509_trust_st, align 8
  %5 = icmp eq i32 %1, 0
  br i1 %5, label %6, label %9

6:                                                ; preds = %3
  %7 = or i32 %2, 8
  %8 = tail call i32 @obj_trust(i32 noundef 910, ptr noundef %0, i32 noundef %7)
  br label %30

9:                                                ; preds = %3
  call void @llvm.lifetime.start.p0(i64 40, ptr nonnull %4) #6
  %or.cond.i = icmp ult i32 %1, 9
  br i1 %or.cond.i, label %20, label %10

10:                                               ; preds = %9
  %11 = load ptr, ptr @trtable, align 8, !tbaa !7
  %12 = icmp eq ptr %11, null
  br i1 %12, label %X509_TRUST_get_by_id.exit.thread, label %13

13:                                               ; preds = %10
  store i32 %1, ptr %4, align 8, !tbaa !9
  tail call void @OPENSSL_sk_sort(ptr noundef nonnull %11) #6
  %14 = load ptr, ptr @trtable, align 8, !tbaa !7
  %15 = call i32 @OPENSSL_sk_find(ptr noundef %14, ptr noundef nonnull %4) #6
  %.inv.i = icmp sgt i32 %15, -1
  br i1 %.inv.i, label %X509_TRUST_get_by_id.exit, label %X509_TRUST_get_by_id.exit.thread

X509_TRUST_get_by_id.exit.thread:                 ; preds = %10, %13
  call void @llvm.lifetime.end.p0(i64 40, ptr nonnull %4) #6
  br label %17

X509_TRUST_get_by_id.exit:                        ; preds = %13
  %narrow.i = add nuw i32 %15, 8
  call void @llvm.lifetime.end.p0(i64 40, ptr nonnull %4) #6
  %16 = icmp slt i32 %narrow.i, 0
  br i1 %16, label %17, label %24

17:                                               ; preds = %X509_TRUST_get_by_id.exit.thread, %X509_TRUST_get_by_id.exit
  %18 = load ptr, ptr @default_trust, align 8, !tbaa !3
  %19 = call i32 %18(i32 noundef %1, ptr noundef %0, i32 noundef %2) #6
  br label %30

20:                                               ; preds = %9
  call void @llvm.lifetime.end.p0(i64 40, ptr nonnull %4) #6
  %21 = zext nneg i32 %1 to i64
  %22 = getelementptr %struct.x509_trust_st, ptr @trstandard, i64 %21
  %23 = getelementptr i8, ptr %22, i64 -40
  br label %X509_TRUST_get0.exit

24:                                               ; preds = %X509_TRUST_get_by_id.exit
  %25 = load ptr, ptr @trtable, align 8, !tbaa !7
  %26 = call ptr @OPENSSL_sk_value(ptr noundef %25, i32 noundef %15) #6
  br label %X509_TRUST_get0.exit

X509_TRUST_get0.exit:                             ; preds = %20, %24
  %.0.i15 = phi ptr [ %23, %20 ], [ %26, %24 ]
  %27 = getelementptr inbounds nuw i8, ptr %.0.i15, i64 8
  %28 = load ptr, ptr %27, align 8, !tbaa !13
  %29 = call i32 %28(ptr noundef %.0.i15, ptr noundef %0, i32 noundef %2) #6
  br label %30

30:                                               ; preds = %X509_TRUST_get0.exit, %17, %6
  %.0 = phi i32 [ %8, %6 ], [ %19, %17 ], [ %29, %X509_TRUST_get0.exit ]
  ret i32 %.0
}